target datalayout = "e-m:e-p270:32:32-p271:32:32-p272:64:64-i64:64-i128:128-f80:128-n8:16:32:64-S128"
target triple = "x86_64-pc-linux-gnu"

%struct.evp_pkey_ctx_st = type { i32, ptr, ptr, ptr, ptr, %union.anon, %struct.anon.4, ptr, ptr, ptr, i32, i32, ptr, ptr, ptr, ptr, ptr, i8, ptr }
%union.anon = type { %struct.anon.0 }
%struct.anon.0 = type { ptr, ptr }
%struct.anon.4 = type { ptr, ptr, i64, i8 }

@.str.1 = private unnamed_addr constant [10 x i8] c"potential\00", align 1
@.str.2 = private unnamed_addr constant [10 x i8] c"iteration\00", align 1

; Function Attrs: nounwind uwtable
define internal i32 @ossl_callback_to_pkey_gencb(ptr noundef %0, ptr noundef %1) #0 {
  %3 = alloca i32, align 4
  %4 = alloca ptr, align 8
  %5 = alloca ptr, align 8
  %6 = alloca ptr, align 8
  %7 = alloca ptr, align 8
  %8 = alloca i32, align 4
  %9 = alloca i32, align 4
  %10 = alloca i32, align 4
  store ptr %0, ptr %4, align 8, !tbaa !54
  store ptr %1, ptr %5, align 8, !tbaa !43
  call void @llvm.lifetime.start.p0(i64 8, ptr %6) #4
  %11 = load ptr, ptr %5, align 8, !tbaa !43
  store ptr %11, ptr %6, align 8, !tbaa !3
  call void @llvm.lifetime.start.p0(i64 8, ptr %7) #4
  store ptr null, ptr %7, align 8, !tbaa !54
  call void @llvm.lifetime.start.p0(i64 4, ptr %8) #4
  store i32 -1, ptr %8, align 4, !tbaa !8
  call void @llvm.lifetime.start.p0(i64 4, ptr %9) #4
  store i32 -1, ptr %9, align 4, !tbaa !8
  %12 = load ptr, ptr %6, align 8, !tbaa !3
  %13 = getelementptr inbounds nuw %struct.evp_pkey_ctx_st, ptr %12, i32 0, i32 8
  %14 = load ptr, ptr %13, align 8, !tbaa !56
  %15 = icmp eq ptr %14, null
  br i1 %15, label %16, label %17

16:                                               ; preds = %2
  store i32 1, ptr %3, align 4
  store i32 1, ptr %10, align 4
  br label %51

17:                                               ; preds = %2
  %18 = load ptr, ptr %4, align 8, !tbaa !54
  %19 = call ptr @OSSL_PARAM_locate_const(ptr noundef %18, ptr noundef @.str.1)
  store ptr %19, ptr %7, align 8, !tbaa !54
  %20 = icmp eq ptr %19, null
  br i1 %20, label %25, label %21

21:                                               ; preds = %17
  %22 = load ptr, ptr %7, align 8, !tbaa !54
  %23 = call i32 @OSSL_PARAM_get_int(ptr noundef %22, ptr noundef %8)
  %24 = icmp ne i32 %23, 0
  br i1 %24, label %26, label %25

25:                                               ; preds = %21, %17
  store i32 0, ptr %3, align 4
  store i32 1, ptr %10, align 4
  br label %51

26:                                               ; preds = %21
  %27 = load ptr, ptr %4, align 8, !tbaa !54
  %28 = call ptr @OSSL_PARAM_locate_const(ptr noundef %27, ptr noundef @.str.2)
  store ptr %28, ptr %7, align 8, !tbaa !54
  %29 = icmp eq ptr %28, null
  br i1 %29, label %34, label %30

30:                                               ; preds = %26
  %31 = load ptr, ptr %7, align 8, !tbaa !54
  %32 = call i32 @OSSL_PARAM_get_int(ptr noundef %31, ptr noundef %9)
  %33 = icmp ne i32 %32, 0
  br i1 %33, label %35, label %34

34:                                               ; preds = %30, %26
  store i32 0, ptr %3, align 4
  store i32 1, ptr %10, align 4
  br label %51

35:                                               ; preds = %30
  %36 = load i32, ptr %8, align 4, !tbaa !8
  %37 = load ptr, ptr %6, align 8, !tbaa !3
  %38 = getelementptr inbounds nuw %struct.evp_pkey_ctx_st, ptr %37, i32 0, i32 9
  %39 = load ptr, ptr %38, align 8, !tbaa !37
  %40 = getelementptr inbounds i32, ptr %39, i64 0
  store i32 %36, ptr %40, align 4, !tbaa !8
  %41 = load i32, ptr %9, align 4, !tbaa !8
  %42 = load ptr, ptr %6, align 8, !tbaa !3
  %43 = getelementptr inbounds nuw %struct.evp_pkey_ctx_st, ptr %42, i32 0, i32 9
  %44 = load ptr, ptr %43, align 8, !tbaa !37
  %45 = getelementptr inbounds i32, ptr %44, i64 1
  store i32 %41, ptr %45, align 4, !tbaa !8
  %46 = load ptr, ptr %6, align 8, !tbaa !3
  %47 = getelementptr inbounds nuw %struct.evp_pkey_ctx_st, ptr %46, i32 0, i32 8
  %48 = load ptr, ptr %47, align 8, !tbaa !56
  %49 = load ptr, ptr %6, align 8, !tbaa !3
  %50 = call i32 %48(ptr noundef %49)
  store i32 %50, ptr %3, align 4
  store i32 1, ptr %10, align 4
  br label %51

51:                                               ; preds = %35, %34, %25, %16
  call void @llvm.lifetime.end.p0(i64 4, ptr %9) #4
  call void @llvm.lifetime.end.p0(i64 4, ptr %8) #4
  call void @llvm.lifetime.end.p0(i64 8, ptr %7) #4
  call void @llvm.lifetime.end.p0(i64 8, ptr %6) #4
  %52 = load i32, ptr %3, align 4
  ret i32 %52
}