; Function Attrs: nounwind uwtable
define internal i32 @ossl_callback_to_pkey_gencb(ptr noundef %0, ptr noundef %1) #0 {
  %3 = alloca i32, align 4
  %4 = alloca i32, align 4
  call void @llvm.lifetime.start.p0(i64 4, ptr nonnull %3) #6
  store i32 -1, ptr %3, align 4, !tbaa !49
  call void @llvm.lifetime.start.p0(i64 4, ptr nonnull %4) #6
  store i32 -1, ptr %4, align 4, !tbaa !49
  %5 = getelementptr inbounds nuw i8, ptr %1, i64 96
  %6 = load ptr, ptr %5, align 8, !tbaa !50
  %7 = icmp eq ptr %6, null
  br i1 %7, label %26, label %8

8:                                                ; preds = %2
  %9 = tail call ptr @OSSL_PARAM_locate_const(ptr noundef %0, ptr noundef nonnull @.str.1) #6
  %10 = icmp eq ptr %9, null
  br i1 %10, label %26, label %11

11:                                               ; preds = %8
  %12 = call i32 @OSSL_PARAM_get_int(ptr noundef nonnull %9, ptr noundef nonnull %3) #6
  %.not = icmp eq i32 %12, 0
  br i1 %.not, label %26, label %13

13:                                               ; preds = %11
  %14 = call ptr @OSSL_PARAM_locate_const(ptr noundef %0, ptr noundef nonnull @.str.2) #6
  %15 = icmp eq ptr %14, null
  br i1 %15, label %26, label %16

16:                                               ; preds = %13
  %17 = call i32 @OSSL_PARAM_get_int(ptr noundef nonnull %14, ptr noundef nonnull %4) #6
  %.not12 = icmp eq i32 %17, 0
  br i1 %.not12, label %26, label %18

18:                                               ; preds = %16
  %19 = load i32, ptr %3, align 4, !tbaa !49
  %20 = getelementptr inbounds nuw i8, ptr %1, i64 104
  %21 = load ptr, ptr %20, align 8, !tbaa !32
  store i32 %19, ptr %21, align 4, !tbaa !49
  %22 = load i32, ptr %4, align 4, !tbaa !49
  %23 = getelementptr inbounds nuw i8, ptr %21, i64 4
  store i32 %22, ptr %23, align 4, !tbaa !49
  %24 = load ptr, ptr %5, align 8, !tbaa !50
  %25 = call i32 %24(ptr noundef nonnull %1) #6
  br label %26

26:                                               ; preds = %13, %16, %8, %11, %2, %18
  %.0 = phi i32 [ %25, %18 ], [ 1, %2 ], [ 0, %11 ], [ 0, %8 ], [ 0, %16 ], [ 0, %13 ]
  call void @llvm.lifetime.end.p0(i64 4, ptr nonnull %4) #6
  call void @llvm.lifetime.end.p0(i64 4, ptr nonnull %3) #6
  ret i32 %.0
}